target datalayout = "e-m:e-p270:32:32-p271:32:32-p272:64:64-i64:64-i128:128-f80:128-n8:16:32:64-S128"
target triple = "x86_64-pc-linux-gnu"

@_ZZ14duAppendCircleP11duDebugDrawffffjE3dir = internal global [80 x float] zeroinitializer, align 16
@_ZZ14duAppendCircleP11duDebugDrawffffjE4init = internal global i8 0, align 1

; Function Attrs: mustprogress uwtable
define void @_Z14duAppendCircleP11duDebugDrawffffj(ptr noundef %0, float noundef %1, float noundef %2, float noundef %3, float noundef %4, i32 noundef %5) #2 {
  %7 = alloca ptr, align 8
  %8 = alloca float, align 4
  %9 = alloca float, align 4
  %10 = alloca float, align 4
  %11 = alloca float, align 4
  %12 = alloca i32, align 4
  %13 = alloca i32, align 4
  %14 = alloca float, align 4
  %15 = alloca i32, align 4
  %16 = alloca i32, align 4
  store ptr %0, ptr %7, align 8
  store float %1, ptr %8, align 4
  store float %2, ptr %9, align 4
  store float %3, ptr %10, align 4
  store float %4, ptr %11, align 4
  store i32 %5, ptr %12, align 4
  %17 = load ptr, ptr %7, align 8
  %18 = icmp ne ptr %17, null
  br i1 %18, label %20, label %19

19:                                               ; preds = %6
  br label %106

20:                                               ; preds = %6
  %21 = load i8, ptr @_ZZ14duAppendCircleP11duDebugDrawffffjE4init, align 1
  %22 = trunc i8 %21 to i1
  br i1 %22, label %50, label %23

23:                                               ; preds = %20
  store i8 1, ptr @_ZZ14duAppendCircleP11duDebugDrawffffjE4init, align 1
  store i32 0, ptr %13, align 4
  br label %24

24:                                               ; preds = %46, %23
  %25 = load i32, ptr %13, align 4
  %26 = icmp slt i32 %25, 40
  br i1 %26, label %27, label %49

27:                                               ; preds = %24
  %28 = load i32, ptr %13, align 4
  %29 = sitofp i32 %28 to float
  %30 = fdiv float %29, 4.000000e+01
  %31 = fmul float %30, 0x400921FB60000000
  %32 = fmul float %31, 2.000000e+00
  store float %32, ptr %14, align 4
  %33 = load float, ptr %14, align 4
  %34 = call float @cosf(float noundef %33) #9
  %35 = load i32, ptr %13, align 4
  %36 = mul nsw i32 %35, 2
  %37 = sext i32 %36 to i64
  %38 = getelementptr inbounds [80 x float], ptr @_ZZ14duAppendCircleP11duDebugDrawffffjE3dir, i64 0, i64 %37
  store float %34, ptr %38, align 4
  %39 = load float, ptr %14, align 4
  %40 = call float @sinf(float noundef %39) #9
  %41 = load i32, ptr %13, align 4
  %42 = mul nsw i32 %41, 2
  %43 = add nsw i32 %42, 1
  %44 = sext i32 %43 to i64
  %45 = getelementptr inbounds [80 x float], ptr @_ZZ14duAppendCircleP11duDebugDrawffffjE3dir, i64 0, i64 %44
  store float %40, ptr %45, align 4
  br label %46

46:                                               ; preds = %27
  %47 = load i32, ptr %13, align 4
  %48 = add nsw i32 %47, 1
  store i32 %48, ptr %13, align 4
  br label %24, !llvm.loop !9

49:                                               ; preds = %24
  br label %50

50:                                               ; preds = %49, %20
  store i32 0, ptr %15, align 4
  store i32 39, ptr %16, align 4
  br label %51

51:                                               ; preds = %103, %50
  %52 = load i32, ptr %15, align 4
  %53 = icmp slt i32 %52, 40
  br i1 %53, label %54, label %106

54:                                               ; preds = %51
  %55 = load ptr, ptr %7, align 8
  %56 = load float, ptr %8, align 4
  %57 = load i32, ptr %16, align 4
  %58 = mul nsw i32 %57, 2
  %59 = add nsw i32 %58, 0
  %60 = sext i32 %59 to i64
  %61 = getelementptr inbounds [80 x float], ptr @_ZZ14duAppendCircleP11duDebugDrawffffjE3dir, i64 0, i64 %60
  %62 = load float, ptr %61, align 4
  %63 = load float, ptr %11, align 4
  %64 = call float @llvm.fmuladd.f32(float %62, float %63, float %56)
  %65 = load float, ptr %9, align 4
  %66 = load float, ptr %10, align 4
  %67 = load i32, ptr %16, align 4
  %68 = mul nsw i32 %67, 2
  %69 = add nsw i32 %68, 1
  %70 = sext i32 %69 to i64
  %71 = getelementptr inbounds [80 x float], ptr @_ZZ14duAppendCircleP11duDebugDrawffffjE3dir, i64 0, i64 %70
  %72 = load float, ptr %71, align 4
  %73 = load float, ptr %11, align 4
  %74 = call float @llvm.fmuladd.f32(float %72, float %73, float %66)
  %75 = load i32, ptr %12, align 4
  %76 = load ptr, ptr %55, align 8
  %77 = getelementptr inbounds ptr, ptr %76, i64 6
  %78 = load ptr, ptr %77, align 8
  call void %78(ptr noundef nonnull align 8 dereferenceable(8) %55, float noundef %64, float noundef %65, float noundef %74, i32 noundef %75)
  %79 = load ptr, ptr %7, align 8
  %80 = load float, ptr %8, align 4
  %81 = load i32, ptr %15, align 4
  %82 = mul nsw i32 %81, 2
  %83 = add nsw i32 %82, 0
  %84 = sext i32 %83 to i64
  %85 = getelementptr inbounds [80 x float], ptr @_ZZ14duAppendCircleP11duDebugDrawffffjE3dir, i64 0, i64 %84
  %86 = load float, ptr %85, align 4
  %87 = load float, ptr %11, align 4
  %88 = call float @llvm.fmuladd.f32(float %86, float %87, float %80)
  %89 = load float, ptr %9, align 4
  %90 = load float, ptr %10, align 4
  %91 = load i32, ptr %15, align 4
  %92 = mul nsw i32 %91, 2
  %93 = add nsw i32 %92, 1
  %94 = sext i32 %93 to i64
  %95 = getelementptr inbounds [80 x float], ptr @_ZZ14duAppendCircleP11duDebugDrawffffjE3dir, i64 0, i64 %94
  %96 = load float, ptr %95, align 4
  %97 = load float, ptr %11, align 4
  %98 = call float @llvm.fmuladd.f32(float %96, float %97, float %90)
  %99 = load i32, ptr %12, align 4
  %100 = load ptr, ptr %79, align 8
  %101 = getelementptr inbounds ptr, ptr %100, i64 6
  %102 = load ptr, ptr %101, align 8
  call void %102(ptr noundef nonnull align 8 dereferenceable(8) %79, float noundef %88, float noundef %89, float noundef %98, i32 noundef %99)
  br label %103

103:                                              ; preds = %54
  %104 = load i32, ptr %15, align 4
  %105 = add nsw i32 %104, 1
  store i32 %105, ptr %15, align 4
  store i32 %104, ptr %16, align 4
  br label %51, !llvm.loop !10

106:                                              ; preds = %51, %19
  ret void
}

; Function Attrs: mustprogress uwtable
define void @_Z17duDebugDrawCircleP11duDebugDrawffffjf(ptr noundef %0, float noundef %1, float noundef %2, float noundef %3, float noundef %4, i32 noundef %5, float noundef %6) #2 {
  %8 = alloca ptr, align 8
  %9 = alloca float, align 4
  %10 = alloca float, align 4
  %11 = alloca float, align 4
  %12 = alloca float, align 4
  %13 = alloca i32, align 4
  %14 = alloca float, align 4
  store ptr %0, ptr %8, align 8
  store float %1, ptr %9, align 4
  store float %2, ptr %10, align 4
  store float %3, ptr %11, align 4
  store float %4, ptr %12, align 4
  store i32 %5, ptr %13, align 4
  store float %6, ptr %14, align 4
  %15 = load ptr, ptr %8, align 8
  %16 = icmp ne ptr %15, null
  br i1 %16, label %18, label %17

17:                                               ; preds = %7
  br label %34

18:                                               ; preds = %7
  %19 = load ptr, ptr %8, align 8
  %20 = load float, ptr %14, align 4
  %21 = load ptr, ptr %19, align 8
  %22 = getelementptr inbounds ptr, ptr %21, i64 4
  %23 = load ptr, ptr %22, align 8
  call void %23(ptr noundef nonnull align 8 dereferenceable(8) %19, i32 noundef 1, float noundef %20)
  %24 = load ptr, ptr %8, align 8
  %25 = load float, ptr %9, align 4
  %26 = load float, ptr %10, align 4
  %27 = load float, ptr %11, align 4
  %28 = load float, ptr %12, align 4
  %29 = load i32, ptr %13, align 4
  call void @_Z14duAppendCircleP11duDebugDrawffffj(ptr noundef %24, float noundef %25, float noundef %26, float noundef %27, float noundef %28, i32 noundef %29)
  %30 = load ptr, ptr %8, align 8
  %31 = load ptr, ptr %30, align 8
  %32 = getelementptr inbounds ptr, ptr %31, i64 9
  %33 = load ptr, ptr %32, align 8
  call void %33(ptr noundef nonnull align 8 dereferenceable(8) %30)
  br label %34

34:                                               ; preds = %18, %17
  ret void
}