; Function Attrs: mustprogress uwtable
define void @_Z17duDebugDrawCircleP11duDebugDrawffffjf(ptr noundef %0, float noundef %1, float noundef %2, float noundef %3, float noundef %4, i32 noundef %5, float noundef %6) local_unnamed_addr #4 {
  %.not = icmp eq ptr %0, null
  br i1 %.not, label %53, label %8

8:                                                ; preds = %7
  %9 = load ptr, ptr %0, align 8
  %10 = getelementptr inbounds i8, ptr %9, i64 32
  %11 = load ptr, ptr %10, align 8
  tail call void %11(ptr noundef nonnull align 8 dereferenceable(8) %0, i32 noundef 1, float noundef %6)
  %.b30.i = load i1, ptr @_ZZ14duAppendCircleP11duDebugDrawffffjE4init, align 1
  br i1 %.b30.i, label %.loopexit31.i.preheader, label %12

12:                                               ; preds = %8
  store i1 true, ptr @_ZZ14duAppendCircleP11duDebugDrawffffjE4init, align 1
  br label %13

13:                                               ; preds = %13, %12
  %indvars.iv.i = phi i64 [ 0, %12 ], [ %indvars.iv.next.i, %13 ]
  %14 = trunc i64 %indvars.iv.i to i32
  %15 = sitofp i32 %14 to float
  %16 = fdiv float %15, 4.000000e+01
  %17 = fmul float %16, 0x400921FB60000000
  %18 = fmul float %17, 2.000000e+00
  %19 = tail call float @cosf(float noundef %18) #15
  %20 = shl nuw nsw i64 %indvars.iv.i, 1
  %21 = getelementptr inbounds [80 x float], ptr @_ZZ14duAppendCircleP11duDebugDrawffffjE3dir, i64 0, i64 %20
  store float %19, ptr %21, align 8
  %22 = tail call float @sinf(float noundef %18) #15
  %23 = or disjoint i64 %20, 1
  %24 = getelementptr inbounds [80 x float], ptr @_ZZ14duAppendCircleP11duDebugDrawffffjE3dir, i64 0, i64 %23
  store float %22, ptr %24, align 4
  %indvars.iv.next.i = add nuw nsw i64 %indvars.iv.i, 1
  %exitcond.not.i = icmp eq i64 %indvars.iv.next.i, 40
  br i1 %exitcond.not.i, label %.loopexit31.i.preheader, label %13, !llvm.loop !9

.loopexit31.i.preheader:                          ; preds = %13, %8
  br label %.loopexit31.i

.loopexit31.i:                                    ; preds = %.loopexit31.i.preheader, %.loopexit31.i
  %indvars.iv36.i = phi i64 [ %indvars.iv.next37.i, %.loopexit31.i ], [ 0, %.loopexit31.i.preheader ]
  %.034.i = phi i32 [ %49, %.loopexit31.i ], [ 39, %.loopexit31.i.preheader ]
  %25 = shl nuw nsw i32 %.034.i, 1
  %26 = zext nneg i32 %25 to i64
  %27 = getelementptr inbounds [80 x float], ptr @_ZZ14duAppendCircleP11duDebugDrawffffjE3dir, i64 0, i64 %26
  %28 = load float, ptr %27, align 8
  %29 = tail call float @llvm.fmuladd.f32(float %28, float %4, float %1)
  %30 = or disjoint i32 %25, 1
  %31 = zext nneg i32 %30 to i64
  %32 = getelementptr inbounds [80 x float], ptr @_ZZ14duAppendCircleP11duDebugDrawffffjE3dir, i64 0, i64 %31
  %33 = load float, ptr %32, align 4
  %34 = tail call float @llvm.fmuladd.f32(float %33, float %4, float %3)
  %35 = load ptr, ptr %0, align 8
  %36 = getelementptr inbounds i8, ptr %35, i64 48
  %37 = load ptr, ptr %36, align 8
  tail call void %37(ptr noundef nonnull align 8 dereferenceable(8) %0, float noundef %29, float noundef %2, float noundef %34, i32 noundef %5)
  %38 = shl nuw nsw i64 %indvars.iv36.i, 1
  %39 = getelementptr inbounds [80 x float], ptr @_ZZ14duAppendCircleP11duDebugDrawffffjE3dir, i64 0, i64 %38
  %40 = load float, ptr %39, align 8
  %41 = tail call float @llvm.fmuladd.f32(float %40, float %4, float %1)
  %42 = or disjoint i64 %38, 1
  %43 = getelementptr inbounds [80 x float], ptr @_ZZ14duAppendCircleP11duDebugDrawffffjE3dir, i64 0, i64 %42
  %44 = load float, ptr %43, align 4
  %45 = tail call float @llvm.fmuladd.f32(float %44, float %4, float %3)
  %46 = load ptr, ptr %0, align 8
  %47 = getelementptr inbounds i8, ptr %46, i64 48
  %48 = load ptr, ptr %47, align 8
  tail call void %48(ptr noundef nonnull align 8 dereferenceable(8) %0, float noundef %41, float noundef %2, float noundef %45, i32 noundef %5)
  %indvars.iv.next37.i = add nuw nsw i64 %indvars.iv36.i, 1
  %49 = trunc i64 %indvars.iv36.i to i32
  %exitcond39.not.i = icmp eq i64 %indvars.iv.next37.i, 40
  br i1 %exitcond39.not.i, label %_Z14duAppendCircleP11duDebugDrawffffj.exit, label %.loopexit31.i, !llvm.loop !10

_Z14duAppendCircleP11duDebugDrawffffj.exit:       ; preds = %.loopexit31.i
  %50 = load ptr, ptr %0, align 8
  %51 = getelementptr inbounds i8, ptr %50, i64 72
  %52 = load ptr, ptr %51, align 8
  tail call void %52(ptr noundef nonnull align 8 dereferenceable(8) %0)
  br label %53

53:                                               ; preds = %7, %_Z14duAppendCircleP11duDebugDrawffffj.exit
  ret void
}